target datalayout = "e-m:e-p270:32:32-p271:32:32-p272:64:64-i64:64-i128:128-f80:128-n8:16:32:64-S128"
target triple = "x86_64-pc-linux-gnu"

%struct.pg_conn = type { ptr, ptr, ptr, ptr, ptr, ptr, ptr, ptr, ptr, ptr, ptr, ptr, ptr, ptr, ptr, ptr, ptr, ptr, ptr, ptr, ptr, ptr, ptr, ptr, ptr, ptr, ptr, ptr, ptr, ptr, ptr, ptr, ptr, ptr, ptr, ptr, ptr, ptr, ptr, ptr, ptr, ptr, ptr, i8, ptr, i32, %struct.PGNoticeHooks, ptr, i32, i32, i32, i32, i32, [6 x i8], i8, i8, i32, i8, i8, i32, i8, i32, ptr, ptr, i32, i32, ptr, ptr, ptr, ptr, ptr, i32, %struct.SockAddr, %struct.SockAddr, i32, i32, i8, i8, i8, i8, i8, i8, ptr, i8, i32, [1 x ptr], i8, i8, ptr, ptr, i32, i32, i32, i8, i8, i32, i32, ptr, i8, i64, ptr, i64, ptr, i32, i32, ptr, i32, i8, i32, i32, i32, i32, ptr, %struct.pg_prng_state, ptr, i32, i32, i32, i32, ptr, i32, i32, i32, i32, ptr, i32, ptr, i8, ptr, ptr, ptr, i32, i8, i8, i8, i8, i8, i8, i8, i8, %struct.PQExpBufferData, i32, %struct.PQExpBufferData }
%struct.PGNoticeHooks = type { ptr, ptr, ptr, ptr }
%struct.SockAddr = type { %struct.sockaddr_storage, i32 }
%struct.sockaddr_storage = type { i16, [118 x i8], i64 }
%struct.pg_prng_state = type { i64, i64 }
%struct.PQExpBufferData = type { ptr, i64, i64 }

; Function Attrs: nounwind uwtable
define internal void @release_conn_addrinfo(ptr noundef %0) #0 {
  %2 = alloca ptr, align 8
  store ptr %0, ptr %2, align 8
  %3 = load ptr, ptr %2, align 8
  %4 = getelementptr inbounds nuw %struct.pg_conn, ptr %3, i32 0, i32 97
  %5 = load ptr, ptr %4, align 8
  %6 = icmp ne ptr %5, null
  br i1 %6, label %7, label %13

7:                                                ; preds = %1
  %8 = load ptr, ptr %2, align 8
  %9 = getelementptr inbounds nuw %struct.pg_conn, ptr %8, i32 0, i32 97
  %10 = load ptr, ptr %9, align 8
  call void @free(ptr noundef %10) #12
  %11 = load ptr, ptr %2, align 8
  %12 = getelementptr inbounds nuw %struct.pg_conn, ptr %11, i32 0, i32 97
  store ptr null, ptr %12, align 8
  br label %13

13:                                               ; preds = %7, %1
  ret void
}

; Function Attrs: nounwind uwtable
define internal void @sendTerminateConn(ptr noundef %0) #0 {
  %2 = alloca ptr, align 8
  store ptr %0, ptr %2, align 8
  %3 = load ptr, ptr %2, align 8
  %4 = getelementptr inbounds nuw %struct.pg_conn, ptr %3, i32 0, i32 43
  %5 = load i8, ptr %4, align 8, !range !3, !noundef !4
  %6 = trunc i8 %5 to i1
  br i1 %6, label %7, label %8

7:                                                ; preds = %1
  br label %25

8:                                                ; preds = %1
  %9 = load ptr, ptr %2, align 8
  %10 = getelementptr inbounds nuw %struct.pg_conn, ptr %9, i32 0, i32 71
  %11 = load i32, ptr %10, align 8
  %12 = icmp ne i32 %11, -1
  br i1 %12, label %13, label %25

13:                                               ; preds = %8
  %14 = load ptr, ptr %2, align 8
  %15 = getelementptr inbounds nuw %struct.pg_conn, ptr %14, i32 0, i32 50
  %16 = load i32, ptr %15, align 8
  %17 = icmp eq i32 %16, 0
  br i1 %17, label %18, label %25

18:                                               ; preds = %13
  %19 = load ptr, ptr %2, align 8
  %20 = call i32 @pqPutMsgStart(i8 noundef signext 88, ptr noundef %19)
  %21 = load ptr, ptr %2, align 8
  %22 = call i32 @pqPutMsgEnd(ptr noundef %21)
  %23 = load ptr, ptr %2, align 8
  %24 = call i32 @pqFlush(ptr noundef %23)
  br label %25

25:                                               ; preds = %7, %18, %13, %8
  ret void
}

; Function Attrs: nounwind uwtable
define void @pqClosePGconn(ptr noundef %0) #0 {
  %2 = alloca ptr, align 8
  store ptr %0, ptr %2, align 8
  %3 = load ptr, ptr %2, align 8
  call void @sendTerminateConn(ptr noundef %3)
  %4 = load ptr, ptr %2, align 8
  %5 = getelementptr inbounds nuw %struct.pg_conn, ptr %4, i32 0, i32 55
  store i8 0, ptr %5, align 1
  %6 = load ptr, ptr %2, align 8
  call void @pqDropConnection(ptr noundef %6, i1 noundef zeroext true)
  %7 = load ptr, ptr %2, align 8
  %8 = getelementptr inbounds nuw %struct.pg_conn, ptr %7, i32 0, i32 50
  store i32 1, ptr %8, align 8
  %9 = load ptr, ptr %2, align 8
  %10 = getelementptr inbounds nuw %struct.pg_conn, ptr %9, i32 0, i32 51
  store i32 0, ptr %10, align 4
  %11 = load ptr, ptr %2, align 8
  %12 = getelementptr inbounds nuw %struct.pg_conn, ptr %11, i32 0, i32 52
  store i32 0, ptr %12, align 8
  %13 = load ptr, ptr %2, align 8
  %14 = getelementptr inbounds nuw %struct.pg_conn, ptr %13, i32 0, i32 56
  store i32 0, ptr %14, align 4
  %15 = load ptr, ptr %2, align 8
  call void @pqClearAsyncResult(ptr noundef %15)
  %16 = load ptr, ptr %2, align 8
  %17 = getelementptr inbounds nuw %struct.pg_conn, ptr %16, i32 0, i32 140
  call void @resetPQExpBuffer(ptr noundef %17)
  %18 = load ptr, ptr %2, align 8
  %19 = getelementptr inbounds nuw %struct.pg_conn, ptr %18, i32 0, i32 141
  store i32 0, ptr %19, align 8
  %20 = load ptr, ptr %2, align 8
  %21 = getelementptr inbounds nuw %struct.pg_conn, ptr %20, i32 0, i32 43
  %22 = load i8, ptr %21, align 8, !range !3, !noundef !4
  %23 = trunc i8 %22 to i1
  br i1 %23, label %26, label %24

24:                                               ; preds = %1
  %25 = load ptr, ptr %2, align 8
  call void @release_conn_addrinfo(ptr noundef %25)
  br label %26

26:                                               ; preds = %24, %1
  %27 = load ptr, ptr %2, align 8
  call void @pqDropServerData(ptr noundef %27)
  ret void
}