; Function Attrs: nounwind uwtable
define void @pqClosePGconn(ptr noundef %0) local_unnamed_addr #0 {
  %2 = getelementptr inbounds nuw i8, ptr %0, i64 344
  %3 = load i8, ptr %2, align 8, !range !13, !noundef !14
  %4 = trunc nuw i8 %3 to i1
  br i1 %4, label %sendTerminateConn.exit, label %5

5:                                                ; preds = %1
  %6 = getelementptr inbounds nuw i8, ptr %0, i64 520
  %7 = load i32, ptr %6, align 8
  %.not.i = icmp eq i32 %7, -1
  br i1 %.not.i, label %sendTerminateConn.exit, label %8

8:                                                ; preds = %5
  %9 = getelementptr inbounds nuw i8, ptr %0, i64 416
  %10 = load i32, ptr %9, align 8
  %11 = icmp eq i32 %10, 0
  br i1 %11, label %12, label %sendTerminateConn.exit

12:                                               ; preds = %8
  %13 = tail call i32 @pqPutMsgStart(i8 noundef signext 88, ptr noundef nonnull %0) #25
  %14 = tail call i32 @pqPutMsgEnd(ptr noundef nonnull %0) #25
  %15 = tail call i32 @pqFlush(ptr noundef nonnull %0) #25
  br label %sendTerminateConn.exit

sendTerminateConn.exit:                           ; preds = %1, %5, %8, %12
  %16 = getelementptr inbounds nuw i8, ptr %0, i64 435
  store i8 0, ptr %16, align 1
  tail call void @pqDropConnection(ptr noundef nonnull %0, i1 noundef zeroext true)
  %17 = getelementptr inbounds nuw i8, ptr %0, i64 416
  store i32 1, ptr %17, align 8
  %18 = getelementptr inbounds nuw i8, ptr %0, i64 420
  store i32 0, ptr %18, align 4
  %19 = getelementptr inbounds nuw i8, ptr %0, i64 424
  store i32 0, ptr %19, align 8
  %20 = getelementptr inbounds nuw i8, ptr %0, i64 436
  store i32 0, ptr %20, align 4
  tail call void @pqClearAsyncResult(ptr noundef nonnull %0) #25
  %21 = getelementptr inbounds nuw i8, ptr %0, i64 1120
  tail call void @resetPQExpBuffer(ptr noundef nonnull %21) #25
  %22 = getelementptr inbounds nuw i8, ptr %0, i64 1144
  store i32 0, ptr %22, align 8
  %23 = load i8, ptr %2, align 8, !range !13, !noundef !14
  %24 = trunc nuw i8 %23 to i1
  br i1 %24, label %release_conn_addrinfo.exit, label %25

25:                                               ; preds = %sendTerminateConn.exit
  %26 = getelementptr inbounds nuw i8, ptr %0, i64 888
  %27 = load ptr, ptr %26, align 8
  %.not.i13 = icmp eq ptr %27, null
  br i1 %.not.i13, label %release_conn_addrinfo.exit, label %28

28:                                               ; preds = %25
  tail call void @free(ptr noundef nonnull %27) #25
  store ptr null, ptr %26, align 8
  br label %release_conn_addrinfo.exit

release_conn_addrinfo.exit:                       ; preds = %28, %25, %sendTerminateConn.exit
  tail call fastcc void @pqDropServerData(ptr noundef nonnull %0)
  ret void
}